; Function Attrs: mustprogress nofree norecurse nosync nounwind willreturn memory(argmem: readwrite) uwtable
define nonnull ptr @SSL_SESSION_get_id(ptr noundef readonly captures(ret: address, provenance) %0, ptr noundef writeonly captures(address_is_null) %1) local_unnamed_addr #0 {
  %.not = icmp eq ptr %1, null
  br i1 %.not, label %7, label %3

3:                                                ; preds = %2
  %4 = getelementptr inbounds nuw i8, ptr %0, i64 592
  %5 = load i64, ptr %4, align 8, !tbaa !91
  %6 = trunc i64 %5 to i32
  store i32 %6, ptr %1, align 4, !tbaa !92
  br label %7

7:                                                ; preds = %3, %2
  %8 = getelementptr inbounds nuw i8, ptr %0, i64 600
  ret ptr %8
}